; Function Attrs: nounwind uwtable
define dso_local void @x64_classify_vector(ptr noundef %0, i64 noundef %1, ptr nocapture noundef writeonly %2, ptr nocapture noundef %3, ptr nocapture noundef writeonly %4, i32 noundef %5) local_unnamed_addr #1 {
  %7 = tail call i32 @type_size(ptr noundef %0) #7
  switch i32 %7, label %23 [
    i32 4, label %8
    i32 2, label %8
    i32 1, label %8
    i32 8, label %14
    i32 16, label %26
  ]

8:                                                ; preds = %6, %6, %6
  store i32 2, ptr %2, align 4
  %9 = zext nneg i32 %7 to i64
  %10 = add i64 %1, -1
  %11 = add i64 %10, %9
  %.not30.unshifted = xor i64 %11, %1
  %.not30 = icmp ult i64 %.not30.unshifted, 8
  br i1 %.not30, label %30, label %12

12:                                               ; preds = %8
  %13 = load i32, ptr %3, align 4
  br label %.sink.split

14:                                               ; preds = %6
  %15 = getelementptr inbounds i8, ptr %0, i64 56
  %16 = load ptr, ptr %15, align 8
  %17 = load i32, ptr %16, align 8
  %18 = icmp eq i32 %17, 16
  br i1 %18, label %30, label %19

19:                                               ; preds = %14
  store i32 3, ptr %2, align 4
  %20 = and i64 %1, -9
  %or.cond5.not = icmp eq i64 %20, 0
  br i1 %or.cond5.not, label %30, label %21

21:                                               ; preds = %19
  %22 = load i32, ptr %3, align 4
  br label %.sink.split

23:                                               ; preds = %6
  %24 = icmp ne i32 %5, 1
  %25 = load i32, ptr getelementptr inbounds (%struct.PlatformTarget, ptr @platform_target, i64 0, i32 16, i32 0, i32 2), align 4
  %.not = icmp ugt i32 %7, %25
  %or.cond = select i1 %24, i1 true, i1 %.not
  br i1 %or.cond, label %30, label %26

26:                                               ; preds = %23, %6
  %27 = load i32, ptr getelementptr inbounds (%struct.PlatformTarget, ptr @platform_target, i64 0, i32 16, i32 0, i32 1), align 8
  %28 = and i32 %27, 524288
  %.not29 = icmp eq i32 %28, 0
  br i1 %.not29, label %29, label %30

29:                                               ; preds = %26
  store i32 3, ptr %3, align 4
  br label %.sink.split

.sink.split:                                      ; preds = %29, %12, %21
  %.sink = phi i32 [ %22, %21 ], [ %13, %12 ], [ 4, %29 ]
  store i32 %.sink, ptr %4, align 4
  br label %30

30:                                               ; preds = %.sink.split, %26, %19, %14, %8, %23
  ret void
}